target datalayout = "e-m:e-p270:32:32-p271:32:32-p272:64:64-i64:64-i128:128-f80:128-n8:16:32:64-S128"
target triple = "x86_64-pc-linux-gnu"

%struct.optstruct = type { ptr, ptr, ptr, i64, i32, i32, i32, i32, ptr, ptr, ptr }
%struct.cl_scan_options = type { i32, i32, i32, i32, i32 }
%struct.rlimit = type { i64, i64 }
%struct.cl_engine = type { i32, i32, i32, [2 x i32], i32, i32, i32, ptr, i32, i64, i32, i32, i64, i64, i32, i32, i32, i32, ptr, ptr, ptr, ptr, ptr, ptr, ptr, ptr, ptr, ptr, ptr, ptr, ptr, ptr, ptr, ptr, ptr, ptr, ptr, i64, ptr, %struct.crtmgr, ptr, ptr, ptr, ptr, ptr, ptr, ptr, ptr, ptr, ptr, ptr, ptr, ptr, ptr, ptr, ptr, ptr, %struct.cli_all_bc, [7 x ptr], [7 x i32], i32, i32, i32, i32, i64, i64, i64, i64, i64, ptr, ptr, ptr, ptr, ptr, ptr, ptr, ptr, ptr, i32, i32, i32, i64, i64, i64, ptr }
%struct.crtmgr = type { ptr, i32 }
%struct.cli_all_bc = type { ptr, i32, ptr, %struct.cli_environment, i32 }
%struct.cli_environment = type { i32, i32, i32, i32, i32, i32, i32, [65 x i8], [65 x i8], [65 x i8], [65 x i8], [65 x i8], [65 x i8], [65 x i8], i8, i8, i8, i8, i8, i8, i8, i8, i8 }

@.str = private unnamed_addr constant [12 x i8] c"leave-temps\00", align 1
@.str.5 = private unnamed_addr constant [32 x i8] c"Can't initialize libclamav: %s\0A\00", align 1
@.str.31 = private unnamed_addr constant [4 x i8] c"vba\00", align 1
@.str.32 = private unnamed_addr constant [8 x i8] c"vba-hex\00", align 1
@.str.482 = private unnamed_addr constant [35 x i8] c"Can't initialize antivirus engine\0A\00", align 1
@.str.483 = private unnamed_addr constant [35 x i8] c"Database initialization error: %s\0A\00", align 1
@.str.484 = private unnamed_addr constant [62 x i8] c"System limit for file size is lower than engine->maxfilesize\0A\00", align 1
@.str.485 = private unnamed_addr constant [62 x i8] c"System limit for file size is lower than engine->maxscansize\0A\00", align 1
@.str.486 = private unnamed_addr constant [45 x i8] c"Cannot obtain resource limits for file size\0A\00", align 1
@.str.488 = private unnamed_addr constant [49 x i8] c"cli_engine_set_str(CL_ENGINE_TMPDIR) failed: %s\0A\00", align 1
@.str.489 = private unnamed_addr constant [25 x i8] c"scanfile: Invalid args.\0A\00", align 1
@.str.490 = private unnamed_addr constant [42 x i8] c"Failed to determine real filename of %s.\0A\00", align 1
@.str.491 = private unnamed_addr constant [65 x i8] c"Quarantine of the file may fail if file path contains symlinks.\0A\00", align 1
@.str.492 = private unnamed_addr constant [24 x i8] c"Can't open file %s: %s\0A\00", align 1
@.str.493 = private unnamed_addr constant [20 x i8] c"Error parsing '%s'\0A\00", align 1

; Function Attrs: nounwind uwtable
define dso_local void @removeTempDir(ptr noundef %0, ptr noundef %1) #0 {
  %3 = alloca ptr, align 8
  %4 = alloca ptr, align 8
  store ptr %0, ptr %3, align 8
  store ptr %1, ptr %4, align 8
  %5 = load ptr, ptr %3, align 8
  %6 = call ptr @optget(ptr noundef %5, ptr noundef @.str)
  %7 = getelementptr inbounds %struct.optstruct, ptr %6, i32 0, i32 4
  %8 = load i32, ptr %7, align 8
  %9 = icmp ne i32 %8, 0
  br i1 %9, label %13, label %10

10:                                               ; preds = %2
  %11 = load ptr, ptr %4, align 8
  %12 = call i32 @cli_rmdirs(ptr noundef %11)
  br label %13

13:                                               ; preds = %10, %2
  ret void
}

; Function Attrs: nounwind uwtable
define internal void @scanfile(ptr noundef %0, ptr noundef %1, ptr noundef %2, ptr noundef %3) #0 {
  %5 = alloca ptr, align 8
  %6 = alloca ptr, align 8
  %7 = alloca ptr, align 8
  %8 = alloca ptr, align 8
  %9 = alloca i32, align 4
  %10 = alloca i32, align 4
  %11 = alloca ptr, align 8
  %12 = alloca ptr, align 8
  %13 = alloca i64, align 8
  store ptr %0, ptr %5, align 8
  store ptr %1, ptr %6, align 8
  store ptr %2, ptr %7, align 8
  store ptr %3, ptr %8, align 8
  store i32 0, ptr %9, align 4
  store i32 -1, ptr %10, align 4
  store ptr null, ptr %11, align 8
  store ptr null, ptr %12, align 8
  store i64 0, ptr %13, align 8
  %14 = load ptr, ptr %5, align 8
  %15 = icmp eq ptr null, %14
  br i1 %15, label %25, label %16

16:                                               ; preds = %4
  %17 = load ptr, ptr %6, align 8
  %18 = icmp eq ptr null, %17
  br i1 %18, label %25, label %19

19:                                               ; preds = %16
  %20 = load ptr, ptr %7, align 8
  %21 = icmp eq ptr null, %20
  br i1 %21, label %25, label %22

22:                                               ; preds = %19
  %23 = load ptr, ptr %8, align 8
  %24 = icmp eq ptr null, %23
  br i1 %24, label %25, label %27

25:                                               ; preds = %22, %19, %16, %4
  %26 = call i32 (i32, ptr, ...) @logg(i32 noundef 0, ptr noundef @.str.489)
  store i32 3, ptr %9, align 4
  br label %59

27:                                               ; preds = %22
  %28 = load ptr, ptr %5, align 8
  %29 = call i32 @cli_realpath(ptr noundef %28, ptr noundef %12)
  store i32 %29, ptr %9, align 4
  %30 = load i32, ptr %9, align 4
  %31 = icmp ne i32 0, %30
  br i1 %31, label %32, label %36

32:                                               ; preds = %27
  %33 = load ptr, ptr %5, align 8
  %34 = call i32 (i32, ptr, ...) @logg(i32 noundef 2, ptr noundef @.str.490, ptr noundef %33)
  %35 = call i32 (i32, ptr, ...) @logg(i32 noundef 2, ptr noundef @.str.491)
  br label %38

36:                                               ; preds = %27
  %37 = load ptr, ptr %12, align 8
  store ptr %37, ptr %5, align 8
  br label %38

38:                                               ; preds = %36, %32
  %39 = load ptr, ptr %5, align 8
  %40 = call i32 (ptr, i32, ...) @open(ptr noundef %39, i32 noundef 0)
  store i32 %40, ptr %10, align 4
  %41 = icmp eq i32 %40, -1
  br i1 %41, label %42, label %48

42:                                               ; preds = %38
  %43 = load ptr, ptr %5, align 8
  %44 = call ptr @__errno_location() #17
  %45 = load i32, ptr %44, align 4
  %46 = call ptr @strerror(i32 noundef %45) #11
  %47 = call i32 (i32, ptr, ...) @logg(i32 noundef 4, ptr noundef @.str.492, ptr noundef %43, ptr noundef %46)
  br label %59

48:                                               ; preds = %38
  %49 = load i32, ptr %10, align 4
  %50 = load ptr, ptr %5, align 8
  %51 = load ptr, ptr %6, align 8
  %52 = load ptr, ptr %8, align 8
  %53 = call i32 @cl_scandesc_callback(i32 noundef %49, ptr noundef %50, ptr noundef %11, ptr noundef %13, ptr noundef %51, ptr noundef %52, ptr noundef null)
  %54 = icmp ne i32 0, %53
  br i1 %54, label %55, label %58

55:                                               ; preds = %48
  %56 = load ptr, ptr %5, align 8
  %57 = call i32 (i32, ptr, ...) @logg(i32 noundef 5, ptr noundef @.str.493, ptr noundef %56)
  br label %59

58:                                               ; preds = %48
  br label %59

59:                                               ; preds = %58, %55, %42, %25
  %60 = load ptr, ptr %12, align 8
  %61 = icmp ne ptr null, %60
  br i1 %61, label %62, label %64

62:                                               ; preds = %59
  %63 = load ptr, ptr %12, align 8
  call void @free(ptr noundef %63) #11
  br label %64

64:                                               ; preds = %62, %59
  ret void
}

; Function Attrs: nounwind uwtable
define internal zeroext i1 @setTempDir(ptr noundef %0, ptr noundef %1) #0 {
  %3 = alloca ptr, align 8
  %4 = alloca ptr, align 8
  %5 = alloca i8, align 1
  %6 = alloca i32, align 4
  %7 = alloca ptr, align 8
  store ptr %0, ptr %3, align 8
  store ptr %1, ptr %4, align 8
  store i8 0, ptr %5, align 1
  store i32 -1, ptr %6, align 4
  %8 = load ptr, ptr %4, align 8
  %9 = call ptr @createTempDir(ptr noundef %8)
  store ptr %9, ptr %7, align 8
  %10 = load ptr, ptr %7, align 8
  %11 = icmp eq ptr null, %10
  br i1 %11, label %12, label %13

12:                                               ; preds = %2
  br label %23

13:                                               ; preds = %2
  %14 = load ptr, ptr %3, align 8
  %15 = load ptr, ptr %7, align 8
  %16 = call i32 @cl_engine_set_str(ptr noundef %14, i32 noundef 13, ptr noundef %15)
  store i32 %16, ptr %6, align 4
  %17 = icmp ne i32 %16, 0
  br i1 %17, label %18, label %22

18:                                               ; preds = %13
  %19 = load i32, ptr %6, align 4
  %20 = call ptr @cl_strerror(i32 noundef %19)
  %21 = call i32 (i32, ptr, ...) @logg(i32 noundef 5, ptr noundef @.str.488, ptr noundef %20)
  br label %23

22:                                               ; preds = %13
  store i8 1, ptr %5, align 1
  br label %23

23:                                               ; preds = %22, %18, %12
  %24 = load ptr, ptr %7, align 8
  %25 = icmp ne ptr %24, null
  br i1 %25, label %26, label %28

26:                                               ; preds = %23
  %27 = load ptr, ptr %7, align 8
  call void @free(ptr noundef %27) #11
  br label %28

28:                                               ; preds = %26, %23
  %29 = load i8, ptr %5, align 1
  %30 = trunc i8 %29 to i1
  ret i1 %30
}

; Function Attrs: nounwind uwtable
define internal i32 @vbadump(ptr noundef %0) #0 {
  %2 = alloca ptr, align 8
  %3 = alloca i32, align 4
  %4 = alloca %struct.cl_scan_options, align 4
  %5 = alloca ptr, align 8
  %6 = alloca %struct.rlimit, align 8
  %7 = alloca ptr, align 8
  store ptr %0, ptr %2, align 8
  store i32 -1, ptr %3, align 4
  store ptr null, ptr %5, align 8
  store ptr null, ptr %7, align 8
  call void @llvm.memset.p0.i64(ptr align 4 %4, i8 0, i64 20, i1 false)
  %8 = call i32 @cl_init(i32 noundef 0)
  store i32 %8, ptr %3, align 4
  %9 = icmp ne i32 %8, 0
  br i1 %9, label %10, label %14

10:                                               ; preds = %1
  %11 = load i32, ptr %3, align 4
  %12 = call ptr @cl_strerror(i32 noundef %11)
  %13 = call i32 (i32, ptr, ...) @logg(i32 noundef 5, ptr noundef @.str.5, ptr noundef %12)
  store i32 2, ptr %3, align 4
  br label %81

14:                                               ; preds = %1
  %15 = call ptr @cl_engine_new()
  store ptr %15, ptr %5, align 8
  %16 = icmp ne ptr %15, null
  br i1 %16, label %19, label %17

17:                                               ; preds = %14
  %18 = call i32 (i32, ptr, ...) @logg(i32 noundef 5, ptr noundef @.str.482)
  store i32 2, ptr %3, align 4
  br label %81

19:                                               ; preds = %14
  %20 = load ptr, ptr %5, align 8
  call void @cl_engine_set_clcb_vba(ptr noundef %20, ptr noundef @vba_callback)
  %21 = load ptr, ptr %5, align 8
  %22 = load ptr, ptr %2, align 8
  %23 = call zeroext i1 @setTempDir(ptr noundef %21, ptr noundef %22)
  br i1 %23, label %25, label %24

24:                                               ; preds = %19
  store i32 2, ptr %3, align 4
  br label %81

25:                                               ; preds = %19
  %26 = load ptr, ptr %5, align 8
  %27 = call i32 @cl_engine_compile(ptr noundef %26)
  store i32 %27, ptr %3, align 4
  %28 = icmp ne i32 %27, 0
  br i1 %28, label %29, label %33

29:                                               ; preds = %25
  %30 = load i32, ptr %3, align 4
  %31 = call ptr @cl_strerror(i32 noundef %30)
  %32 = call i32 (i32, ptr, ...) @logg(i32 noundef 5, ptr noundef @.str.483, ptr noundef %31)
  store i32 2, ptr %3, align 4
  br label %81

33:                                               ; preds = %25
  %34 = call i32 @getrlimit(i32 noundef 1, ptr noundef %6) #11
  %35 = icmp eq i32 %34, 0
  br i1 %35, label %36, label %53

36:                                               ; preds = %33
  %37 = getelementptr inbounds %struct.rlimit, ptr %6, i32 0, i32 0
  %38 = load i64, ptr %37, align 8
  %39 = load ptr, ptr %5, align 8
  %40 = call i64 @cl_engine_get_num(ptr noundef %39, i32 noundef 1, ptr noundef null)
  %41 = icmp ult i64 %38, %40
  br i1 %41, label %42, label %44

42:                                               ; preds = %36
  %43 = call i32 (i32, ptr, ...) @logg(i32 noundef 4, ptr noundef @.str.484)
  br label %44

44:                                               ; preds = %42, %36
  %45 = getelementptr inbounds %struct.rlimit, ptr %6, i32 0, i32 0
  %46 = load i64, ptr %45, align 8
  %47 = load ptr, ptr %5, align 8
  %48 = call i64 @cl_engine_get_num(ptr noundef %47, i32 noundef 0, ptr noundef null)
  %49 = icmp ult i64 %46, %48
  br i1 %49, label %50, label %52

50:                                               ; preds = %44
  %51 = call i32 (i32, ptr, ...) @logg(i32 noundef 4, ptr noundef @.str.485)
  br label %52

52:                                               ; preds = %50, %44
  br label %55

53:                                               ; preds = %33
  %54 = call i32 (i32, ptr, ...) @logg(i32 noundef 4, ptr noundef @.str.486)
  br label %55

55:                                               ; preds = %53, %52
  %56 = getelementptr inbounds %struct.cl_scan_options, ptr %4, i32 0, i32 0
  %57 = load i32, ptr %56, align 4
  %58 = or i32 %57, 2
  store i32 %58, ptr %56, align 4
  %59 = getelementptr inbounds %struct.cl_scan_options, ptr %4, i32 0, i32 1
  store i32 -1, ptr %59, align 4
  %60 = load ptr, ptr %5, align 8
  %61 = call i32 @cl_engine_set_num(ptr noundef %60, i32 noundef 14, i64 noundef 1)
  %62 = load ptr, ptr %2, align 8
  %63 = call ptr @optget(ptr noundef %62, ptr noundef @.str.31)
  %64 = getelementptr inbounds %struct.optstruct, ptr %63, i32 0, i32 2
  %65 = load ptr, ptr %64, align 8
  store ptr %65, ptr %7, align 8
  %66 = load ptr, ptr %7, align 8
  %67 = icmp eq ptr null, %66
  br i1 %67, label %68, label %73

68:                                               ; preds = %55
  %69 = load ptr, ptr %2, align 8
  %70 = call ptr @optget(ptr noundef %69, ptr noundef @.str.32)
  %71 = getelementptr inbounds %struct.optstruct, ptr %70, i32 0, i32 2
  %72 = load ptr, ptr %71, align 8
  store ptr %72, ptr %7, align 8
  br label %73

73:                                               ; preds = %68, %55
  %74 = load ptr, ptr %7, align 8
  %75 = load ptr, ptr %5, align 8
  %76 = load ptr, ptr %2, align 8
  call void @scanfile(ptr noundef %74, ptr noundef %75, ptr noundef %76, ptr noundef %4)
  %77 = load ptr, ptr %2, align 8
  %78 = load ptr, ptr %5, align 8
  %79 = getelementptr inbounds %struct.cl_engine, ptr %78, i32 0, i32 7
  %80 = load ptr, ptr %79, align 8
  call void @removeTempDir(ptr noundef %77, ptr noundef %80)
  store i32 0, ptr %3, align 4
  br label %81

81:                                               ; preds = %73, %29, %24, %17, %10
  %82 = load ptr, ptr %5, align 8
  %83 = call i32 @cl_engine_free(ptr noundef %82)
  %84 = load i32, ptr %3, align 4
  ret i32 %84
}