; Function Attrs: nounwind uwtable
define internal fastcc noundef i32 @vbadump(ptr noundef %0) unnamed_addr #0 {
  %2 = alloca ptr, align 8
  %3 = alloca ptr, align 8
  %4 = alloca i64, align 8
  %5 = alloca %struct.cl_scan_options, align 4
  %6 = alloca %struct.rlimit, align 8
  call void @llvm.memset.p0.i64(ptr noundef nonnull align 4 dereferenceable(20) %5, i8 0, i64 20, i1 false)
  %7 = tail call i32 @cl_init(i32 noundef 0) #25
  %.not = icmp eq i32 %7, 0
  br i1 %.not, label %11, label %8

8:                                                ; preds = %1
  %9 = tail call ptr @cl_strerror(i32 noundef %7) #25
  %10 = tail call i32 (i32, ptr, ...) @logg(i32 noundef 5, ptr noundef nonnull @.str.5, ptr noundef %9) #25
  br label %removeTempDir.exit

11:                                               ; preds = %1
  %12 = tail call ptr @cl_engine_new() #25
  %.not24 = icmp eq ptr %12, null
  br i1 %.not24, label %13, label %15

13:                                               ; preds = %11
  %14 = tail call i32 (i32, ptr, ...) @logg(i32 noundef 5, ptr noundef nonnull @.str.482) #25
  br label %removeTempDir.exit

15:                                               ; preds = %11
  tail call void @cl_engine_set_clcb_vba(ptr noundef nonnull %12, ptr noundef nonnull @vba_callback) #25
  %16 = tail call ptr @createTempDir(ptr noundef %0)
  %17 = icmp eq ptr %16, null
  br i1 %17, label %removeTempDir.exit, label %18

18:                                               ; preds = %15
  %19 = tail call i32 @cl_engine_set_str(ptr noundef nonnull %12, i32 noundef 13, ptr noundef nonnull %16) #25
  %.not.i = icmp eq i32 %19, 0
  br i1 %.not.i, label %22, label %setTempDir.exit

setTempDir.exit:                                  ; preds = %18
  %20 = tail call ptr @cl_strerror(i32 noundef %19) #25
  %21 = tail call i32 (i32, ptr, ...) @logg(i32 noundef 5, ptr noundef nonnull @.str.488, ptr noundef %20) #25
  tail call void @free(ptr noundef nonnull %16) #25
  br label %removeTempDir.exit

22:                                               ; preds = %18
  tail call void @free(ptr noundef nonnull %16) #25
  %23 = tail call i32 @cl_engine_compile(ptr noundef nonnull %12) #25
  %.not25 = icmp eq i32 %23, 0
  br i1 %.not25, label %27, label %24

24:                                               ; preds = %22
  %25 = tail call ptr @cl_strerror(i32 noundef %23) #25
  %26 = tail call i32 (i32, ptr, ...) @logg(i32 noundef 5, ptr noundef nonnull @.str.483, ptr noundef %25) #25
  br label %removeTempDir.exit

27:                                               ; preds = %22
  %28 = call i32 @getrlimit(i32 noundef 1, ptr noundef nonnull %6) #25
  %29 = icmp eq i32 %28, 0
  br i1 %29, label %30, label %.sink.split

30:                                               ; preds = %27
  %31 = load i64, ptr %6, align 8
  %32 = call i64 @cl_engine_get_num(ptr noundef nonnull %12, i32 noundef 1, ptr noundef null) #25
  %33 = icmp ult i64 %31, %32
  br i1 %33, label %34, label %36

34:                                               ; preds = %30
  %35 = call i32 (i32, ptr, ...) @logg(i32 noundef 4, ptr noundef nonnull @.str.484) #25
  br label %36

36:                                               ; preds = %34, %30
  %37 = load i64, ptr %6, align 8
  %38 = call i64 @cl_engine_get_num(ptr noundef nonnull %12, i32 noundef 0, ptr noundef null) #25
  %39 = icmp ult i64 %37, %38
  br i1 %39, label %.sink.split, label %41

.sink.split:                                      ; preds = %27, %36
  %.str.485.sink = phi ptr [ @.str.485, %36 ], [ @.str.486, %27 ]
  %40 = call i32 (i32, ptr, ...) @logg(i32 noundef 4, ptr noundef nonnull %.str.485.sink) #25
  br label %41

41:                                               ; preds = %.sink.split, %36
  store i32 2, ptr %5, align 4
  %42 = getelementptr inbounds i8, ptr %5, i64 4
  store i32 -1, ptr %42, align 4
  %43 = call i32 @cl_engine_set_num(ptr noundef nonnull %12, i32 noundef 14, i64 noundef 1) #25
  %44 = call ptr @optget(ptr noundef %0, ptr noundef nonnull @.str.31) #25
  %45 = getelementptr inbounds i8, ptr %44, i64 16
  %46 = load ptr, ptr %45, align 8
  %47 = icmp eq ptr %46, null
  br i1 %47, label %48, label %.thread

.thread:                                          ; preds = %41
  call void @llvm.lifetime.start.p0(i64 8, ptr nonnull %2)
  call void @llvm.lifetime.start.p0(i64 8, ptr nonnull %3)
  call void @llvm.lifetime.start.p0(i64 8, ptr nonnull %4)
  store ptr null, ptr %2, align 8
  store ptr null, ptr %3, align 8
  store i64 0, ptr %4, align 8
  br label %55

48:                                               ; preds = %41
  %49 = call ptr @optget(ptr noundef %0, ptr noundef nonnull @.str.32) #25
  %50 = getelementptr inbounds i8, ptr %49, i64 16
  %51 = load ptr, ptr %50, align 8
  call void @llvm.lifetime.start.p0(i64 8, ptr nonnull %2)
  call void @llvm.lifetime.start.p0(i64 8, ptr nonnull %3)
  call void @llvm.lifetime.start.p0(i64 8, ptr nonnull %4)
  store ptr null, ptr %2, align 8
  store ptr null, ptr %3, align 8
  store i64 0, ptr %4, align 8
  %52 = icmp eq ptr %51, null
  br i1 %52, label %53, label %55

53:                                               ; preds = %48
  %54 = call i32 (i32, ptr, ...) @logg(i32 noundef 0, ptr noundef nonnull @.str.489) #25
  br label %74

55:                                               ; preds = %.thread, %48
  %.031 = phi ptr [ %46, %.thread ], [ %51, %48 ]
  %56 = call i32 @cli_realpath(ptr noundef nonnull %.031, ptr noundef nonnull %3) #25
  %.not.i26 = icmp eq i32 %56, 0
  br i1 %.not.i26, label %60, label %57

57:                                               ; preds = %55
  %58 = call i32 (i32, ptr, ...) @logg(i32 noundef 2, ptr noundef nonnull @.str.490, ptr noundef nonnull %.031) #25
  %59 = call i32 (i32, ptr, ...) @logg(i32 noundef 2, ptr noundef nonnull @.str.491) #25
  br label %62

60:                                               ; preds = %55
  %61 = load ptr, ptr %3, align 8
  br label %62

62:                                               ; preds = %60, %57
  %.0.i = phi ptr [ %.031, %57 ], [ %61, %60 ]
  %63 = call i32 (ptr, i32, ...) @open(ptr noundef %.0.i, i32 noundef 0) #25
  %64 = icmp eq i32 %63, -1
  br i1 %64, label %65, label %70

65:                                               ; preds = %62
  %66 = tail call ptr @__errno_location() #29
  %67 = load i32, ptr %66, align 4
  %68 = call ptr @strerror(i32 noundef %67) #25
  %69 = call i32 (i32, ptr, ...) @logg(i32 noundef 4, ptr noundef nonnull @.str.492, ptr noundef %.0.i, ptr noundef %68) #25
  br label %74

70:                                               ; preds = %62
  %71 = call i32 @cl_scandesc_callback(i32 noundef %63, ptr noundef %.0.i, ptr noundef nonnull %2, ptr noundef nonnull %4, ptr noundef nonnull %12, ptr noundef nonnull %5, ptr noundef null) #25
  %.not23.i = icmp eq i32 %71, 0
  br i1 %.not23.i, label %74, label %72

72:                                               ; preds = %70
  %73 = call i32 (i32, ptr, ...) @logg(i32 noundef 5, ptr noundef nonnull @.str.493, ptr noundef %.0.i) #25
  br label %74

74:                                               ; preds = %72, %70, %65, %53
  %75 = load ptr, ptr %3, align 8
  %.not24.i = icmp eq ptr %75, null
  br i1 %.not24.i, label %scanfile.exit, label %76

76:                                               ; preds = %74
  call void @free(ptr noundef nonnull %75) #25
  br label %scanfile.exit

scanfile.exit:                                    ; preds = %74, %76
  call void @llvm.lifetime.end.p0(i64 8, ptr nonnull %2)
  call void @llvm.lifetime.end.p0(i64 8, ptr nonnull %3)
  call void @llvm.lifetime.end.p0(i64 8, ptr nonnull %4)
  %77 = getelementptr inbounds i8, ptr %12, i64 32
  %78 = load ptr, ptr %77, align 8
  %79 = call ptr @optget(ptr noundef %0, ptr noundef nonnull @.str) #25
  %80 = getelementptr inbounds i8, ptr %79, i64 32
  %81 = load i32, ptr %80, align 8
  %.not.i27 = icmp eq i32 %81, 0
  br i1 %.not.i27, label %82, label %removeTempDir.exit

82:                                               ; preds = %scanfile.exit
  %83 = call i32 @cli_rmdirs(ptr noundef %78) #25
  br label %removeTempDir.exit

removeTempDir.exit:                               ; preds = %15, %82, %scanfile.exit, %setTempDir.exit, %24, %13, %8
  %.019 = phi i32 [ 2, %8 ], [ 2, %24 ], [ 2, %13 ], [ 2, %setTempDir.exit ], [ 0, %scanfile.exit ], [ 0, %82 ], [ 2, %15 ]
  %.018 = phi ptr [ null, %8 ], [ %12, %24 ], [ null, %13 ], [ %12, %setTempDir.exit ], [ %12, %scanfile.exit ], [ %12, %82 ], [ %12, %15 ]
  %84 = call i32 @cl_engine_free(ptr noundef %.018) #25
  ret i32 %.019
}